target datalayout = "e-m:e-p270:32:32-p271:32:32-p272:64:64-i64:64-i128:128-f80:128-n8:16:32:64-S128"
target triple = "x86_64-pc-linux-gnu"

; Function Attrs: inlinehint mustprogress nounwind uwtable
define internal void @_ZL6aria_aPjS_S_S_(ptr noundef %0, ptr noundef %1, ptr noundef %2, ptr noundef %3) #6 {
  %5 = alloca ptr, align 8
  %6 = alloca ptr, align 8
  %7 = alloca ptr, align 8
  %8 = alloca ptr, align 8
  %9 = alloca i32, align 4
  %10 = alloca i32, align 4
  %11 = alloca i32, align 4
  store ptr %0, ptr %5, align 8, !tbaa !15
  store ptr %1, ptr %6, align 8, !tbaa !15
  store ptr %2, ptr %7, align 8, !tbaa !15
  store ptr %3, ptr %8, align 8, !tbaa !15
  call void @llvm.lifetime.start.p0(i64 4, ptr %9) #7
  call void @llvm.lifetime.start.p0(i64 4, ptr %10) #7
  call void @llvm.lifetime.start.p0(i64 4, ptr %11) #7
  %12 = load ptr, ptr %6, align 8, !tbaa !15
  %13 = load i32, ptr %12, align 4, !tbaa !10
  store i32 %13, ptr %9, align 4, !tbaa !10
  %14 = load ptr, ptr %5, align 8, !tbaa !15
  %15 = load i32, ptr %14, align 4, !tbaa !10
  %16 = load ptr, ptr %6, align 8, !tbaa !15
  store i32 %15, ptr %16, align 4, !tbaa !10
  %17 = load i32, ptr %9, align 4, !tbaa !10
  %18 = lshr i32 %17, 16
  %19 = load i32, ptr %9, align 4, !tbaa !10
  %20 = shl i32 %19, 16
  %21 = xor i32 %18, %20
  %22 = load ptr, ptr %5, align 8, !tbaa !15
  store i32 %21, ptr %22, align 4, !tbaa !10
  %23 = load ptr, ptr %8, align 8, !tbaa !15
  %24 = load i32, ptr %23, align 4, !tbaa !10
  %25 = lshr i32 %24, 16
  %26 = load ptr, ptr %8, align 8, !tbaa !15
  %27 = load i32, ptr %26, align 4, !tbaa !10
  %28 = shl i32 %27, 16
  %29 = xor i32 %25, %28
  store i32 %29, ptr %10, align 4, !tbaa !10
  %30 = load ptr, ptr %7, align 8, !tbaa !15
  %31 = load i32, ptr %30, align 4, !tbaa !10
  %32 = lshr i32 %31, 8
  %33 = and i32 %32, 16711935
  %34 = load ptr, ptr %7, align 8, !tbaa !15
  %35 = load i32, ptr %34, align 4, !tbaa !10
  %36 = and i32 %35, 16711935
  %37 = shl i32 %36, 8
  %38 = xor i32 %33, %37
  %39 = load ptr, ptr %8, align 8, !tbaa !15
  store i32 %38, ptr %39, align 4, !tbaa !10
  %40 = load i32, ptr %10, align 4, !tbaa !10
  %41 = lshr i32 %40, 8
  %42 = and i32 %41, 16711935
  %43 = load i32, ptr %10, align 4, !tbaa !10
  %44 = and i32 %43, 16711935
  %45 = shl i32 %44, 8
  %46 = xor i32 %42, %45
  %47 = load ptr, ptr %7, align 8, !tbaa !15
  store i32 %46, ptr %47, align 4, !tbaa !10
  %48 = load ptr, ptr %8, align 8, !tbaa !15
  %49 = load i32, ptr %48, align 4, !tbaa !10
  %50 = load i32, ptr %9, align 4, !tbaa !10
  %51 = xor i32 %50, %49
  store i32 %51, ptr %9, align 4, !tbaa !10
  %52 = load ptr, ptr %6, align 8, !tbaa !15
  %53 = load i32, ptr %52, align 4, !tbaa !10
  %54 = lshr i32 %53, 16
  %55 = load ptr, ptr %6, align 8, !tbaa !15
  %56 = load i32, ptr %55, align 4, !tbaa !10
  %57 = shl i32 %56, 16
  %58 = xor i32 %54, %57
  store i32 %58, ptr %11, align 4, !tbaa !10
  %59 = load i32, ptr %9, align 4, !tbaa !10
  %60 = lshr i32 %59, 8
  %61 = and i32 %60, 16711935
  %62 = load i32, ptr %9, align 4, !tbaa !10
  %63 = and i32 %62, 16711935
  %64 = shl i32 %63, 8
  %65 = xor i32 %61, %64
  %66 = load i32, ptr %11, align 4, !tbaa !10
  %67 = xor i32 %65, %66
  %68 = load ptr, ptr %7, align 8, !tbaa !15
  %69 = load i32, ptr %68, align 4, !tbaa !10
  %70 = xor i32 %67, %69
  store i32 %70, ptr %9, align 4, !tbaa !10
  %71 = load ptr, ptr %8, align 8, !tbaa !15
  %72 = load i32, ptr %71, align 4, !tbaa !10
  %73 = lshr i32 %72, 16
  %74 = load ptr, ptr %8, align 8, !tbaa !15
  %75 = load i32, ptr %74, align 4, !tbaa !10
  %76 = shl i32 %75, 16
  %77 = xor i32 %73, %76
  %78 = load i32, ptr %10, align 4, !tbaa !10
  %79 = xor i32 %78, %77
  store i32 %79, ptr %10, align 4, !tbaa !10
  %80 = load ptr, ptr %5, align 8, !tbaa !15
  %81 = load i32, ptr %80, align 4, !tbaa !10
  %82 = lshr i32 %81, 8
  %83 = and i32 %82, 16711935
  %84 = load ptr, ptr %5, align 8, !tbaa !15
  %85 = load i32, ptr %84, align 4, !tbaa !10
  %86 = and i32 %85, 16711935
  %87 = shl i32 %86, 8
  %88 = xor i32 %83, %87
  %89 = load i32, ptr %11, align 4, !tbaa !10
  %90 = xor i32 %89, %88
  store i32 %90, ptr %11, align 4, !tbaa !10
  %91 = load i32, ptr %9, align 4, !tbaa !10
  %92 = load i32, ptr %10, align 4, !tbaa !10
  %93 = xor i32 %91, %92
  %94 = load ptr, ptr %6, align 8, !tbaa !15
  %95 = load i32, ptr %94, align 4, !tbaa !10
  %96 = xor i32 %95, %93
  store i32 %96, ptr %94, align 4, !tbaa !10
  %97 = load i32, ptr %10, align 4, !tbaa !10
  %98 = lshr i32 %97, 16
  %99 = load i32, ptr %10, align 4, !tbaa !10
  %100 = shl i32 %99, 16
  %101 = xor i32 %98, %100
  %102 = load i32, ptr %9, align 4, !tbaa !10
  %103 = xor i32 %101, %102
  store i32 %103, ptr %10, align 4, !tbaa !10
  %104 = load i32, ptr %10, align 4, !tbaa !10
  %105 = lshr i32 %104, 8
  %106 = and i32 %105, 16711935
  %107 = load i32, ptr %10, align 4, !tbaa !10
  %108 = and i32 %107, 16711935
  %109 = shl i32 %108, 8
  %110 = xor i32 %106, %109
  %111 = load ptr, ptr %5, align 8, !tbaa !15
  %112 = load i32, ptr %111, align 4, !tbaa !10
  %113 = xor i32 %112, %110
  store i32 %113, ptr %111, align 4, !tbaa !10
  %114 = load i32, ptr %9, align 4, !tbaa !10
  %115 = lshr i32 %114, 16
  %116 = load i32, ptr %9, align 4, !tbaa !10
  %117 = shl i32 %116, 16
  %118 = xor i32 %115, %117
  store i32 %118, ptr %9, align 4, !tbaa !10
  %119 = load i32, ptr %9, align 4, !tbaa !10
  %120 = lshr i32 %119, 8
  %121 = and i32 %120, 16711935
  %122 = load i32, ptr %9, align 4, !tbaa !10
  %123 = and i32 %122, 16711935
  %124 = shl i32 %123, 8
  %125 = xor i32 %121, %124
  %126 = load i32, ptr %11, align 4, !tbaa !10
  %127 = xor i32 %125, %126
  %128 = load ptr, ptr %8, align 8, !tbaa !15
  %129 = load i32, ptr %128, align 4, !tbaa !10
  %130 = xor i32 %129, %127
  store i32 %130, ptr %128, align 4, !tbaa !10
  %131 = load i32, ptr %11, align 4, !tbaa !10
  %132 = lshr i32 %131, 16
  %133 = load i32, ptr %11, align 4, !tbaa !10
  %134 = shl i32 %133, 16
  %135 = xor i32 %132, %134
  store i32 %135, ptr %11, align 4, !tbaa !10
  %136 = load i32, ptr %11, align 4, !tbaa !10
  %137 = lshr i32 %136, 8
  %138 = and i32 %137, 16711935
  %139 = load i32, ptr %11, align 4, !tbaa !10
  %140 = and i32 %139, 16711935
  %141 = shl i32 %140, 8
  %142 = xor i32 %138, %141
  %143 = load i32, ptr %9, align 4, !tbaa !10
  %144 = xor i32 %142, %143
  %145 = load ptr, ptr %7, align 8, !tbaa !15
  %146 = load i32, ptr %145, align 4, !tbaa !10
  %147 = xor i32 %146, %144
  store i32 %147, ptr %145, align 4, !tbaa !10
  call void @llvm.lifetime.end.p0(i64 4, ptr %11) #7
  call void @llvm.lifetime.end.p0(i64 4, ptr %10) #7
  call void @llvm.lifetime.end.p0(i64 4, ptr %9) #7
  ret void
}

; Function Attrs: inlinehint mustprogress nounwind uwtable
define internal void @_ZL7aria_slPjS_S_S_PKhS1_S1_S1_(ptr noundef %0, ptr noundef %1, ptr noundef %2, ptr noundef %3, ptr noundef %4, ptr noundef %5, ptr noundef %6, ptr noundef %7) #6 {
  %9 = alloca ptr, align 8
  %10 = alloca ptr, align 8
  %11 = alloca ptr, align 8
  %12 = alloca ptr, align 8
  %13 = alloca ptr, align 8
  %14 = alloca ptr, align 8
  %15 = alloca ptr, align 8
  %16 = alloca ptr, align 8
  store ptr %0, ptr %9, align 8, !tbaa !15
  store ptr %1, ptr %10, align 8, !tbaa !15
  store ptr %2, ptr %11, align 8, !tbaa !15
  store ptr %3, ptr %12, align 8, !tbaa !15
  store ptr %4, ptr %13, align 8, !tbaa !8
  store ptr %5, ptr %14, align 8, !tbaa !8
  store ptr %6, ptr %15, align 8, !tbaa !8
  store ptr %7, ptr %16, align 8, !tbaa !8
  %17 = load ptr, ptr %13, align 8, !tbaa !8
  %18 = load ptr, ptr %9, align 8, !tbaa !15
  %19 = load i32, ptr %18, align 4, !tbaa !10
  %20 = and i32 %19, 255
  %21 = trunc i32 %20 to i8
  %22 = zext i8 %21 to i64
  %23 = getelementptr inbounds nuw i8, ptr %17, i64 %22
  %24 = load i8, ptr %23, align 1, !tbaa !12
  %25 = zext i8 %24 to i32
  %26 = load ptr, ptr %14, align 8, !tbaa !8
  %27 = load ptr, ptr %9, align 8, !tbaa !15
  %28 = load i32, ptr %27, align 4, !tbaa !10
  %29 = lshr i32 %28, 8
  %30 = and i32 %29, 255
  %31 = trunc i32 %30 to i8
  %32 = zext i8 %31 to i64
  %33 = getelementptr inbounds nuw i8, ptr %26, i64 %32
  %34 = load i8, ptr %33, align 1, !tbaa !12
  %35 = zext i8 %34 to i32
  %36 = shl i32 %35, 8
  %37 = xor i32 %25, %36
  %38 = load ptr, ptr %15, align 8, !tbaa !8
  %39 = load ptr, ptr %9, align 8, !tbaa !15
  %40 = load i32, ptr %39, align 4, !tbaa !10
  %41 = lshr i32 %40, 16
  %42 = and i32 %41, 255
  %43 = trunc i32 %42 to i8
  %44 = zext i8 %43 to i64
  %45 = getelementptr inbounds nuw i8, ptr %38, i64 %44
  %46 = load i8, ptr %45, align 1, !tbaa !12
  %47 = zext i8 %46 to i32
  %48 = shl i32 %47, 16
  %49 = xor i32 %37, %48
  %50 = load ptr, ptr %16, align 8, !tbaa !8
  %51 = load ptr, ptr %9, align 8, !tbaa !15
  %52 = load i32, ptr %51, align 4, !tbaa !10
  %53 = lshr i32 %52, 24
  %54 = and i32 %53, 255
  %55 = trunc i32 %54 to i8
  %56 = zext i8 %55 to i64
  %57 = getelementptr inbounds nuw i8, ptr %50, i64 %56
  %58 = load i8, ptr %57, align 1, !tbaa !12
  %59 = zext i8 %58 to i32
  %60 = shl i32 %59, 24
  %61 = xor i32 %49, %60
  %62 = load ptr, ptr %9, align 8, !tbaa !15
  store i32 %61, ptr %62, align 4, !tbaa !10
  %63 = load ptr, ptr %13, align 8, !tbaa !8
  %64 = load ptr, ptr %10, align 8, !tbaa !15
  %65 = load i32, ptr %64, align 4, !tbaa !10
  %66 = and i32 %65, 255
  %67 = trunc i32 %66 to i8
  %68 = zext i8 %67 to i64
  %69 = getelementptr inbounds nuw i8, ptr %63, i64 %68
  %70 = load i8, ptr %69, align 1, !tbaa !12
  %71 = zext i8 %70 to i32
  %72 = load ptr, ptr %14, align 8, !tbaa !8
  %73 = load ptr, ptr %10, align 8, !tbaa !15
  %74 = load i32, ptr %73, align 4, !tbaa !10
  %75 = lshr i32 %74, 8
  %76 = and i32 %75, 255
  %77 = trunc i32 %76 to i8
  %78 = zext i8 %77 to i64
  %79 = getelementptr inbounds nuw i8, ptr %72, i64 %78
  %80 = load i8, ptr %79, align 1, !tbaa !12
  %81 = zext i8 %80 to i32
  %82 = shl i32 %81, 8
  %83 = xor i32 %71, %82
  %84 = load ptr, ptr %15, align 8, !tbaa !8
  %85 = load ptr, ptr %10, align 8, !tbaa !15
  %86 = load i32, ptr %85, align 4, !tbaa !10
  %87 = lshr i32 %86, 16
  %88 = and i32 %87, 255
  %89 = trunc i32 %88 to i8
  %90 = zext i8 %89 to i64
  %91 = getelementptr inbounds nuw i8, ptr %84, i64 %90
  %92 = load i8, ptr %91, align 1, !tbaa !12
  %93 = zext i8 %92 to i32
  %94 = shl i32 %93, 16
  %95 = xor i32 %83, %94
  %96 = load ptr, ptr %16, align 8, !tbaa !8
  %97 = load ptr, ptr %10, align 8, !tbaa !15
  %98 = load i32, ptr %97, align 4, !tbaa !10
  %99 = lshr i32 %98, 24
  %100 = and i32 %99, 255
  %101 = trunc i32 %100 to i8
  %102 = zext i8 %101 to i64
  %103 = getelementptr inbounds nuw i8, ptr %96, i64 %102
  %104 = load i8, ptr %103, align 1, !tbaa !12
  %105 = zext i8 %104 to i32
  %106 = shl i32 %105, 24
  %107 = xor i32 %95, %106
  %108 = load ptr, ptr %10, align 8, !tbaa !15
  store i32 %107, ptr %108, align 4, !tbaa !10
  %109 = load ptr, ptr %13, align 8, !tbaa !8
  %110 = load ptr, ptr %11, align 8, !tbaa !15
  %111 = load i32, ptr %110, align 4, !tbaa !10
  %112 = and i32 %111, 255
  %113 = trunc i32 %112 to i8
  %114 = zext i8 %113 to i64
  %115 = getelementptr inbounds nuw i8, ptr %109, i64 %114
  %116 = load i8, ptr %115, align 1, !tbaa !12
  %117 = zext i8 %116 to i32
  %118 = load ptr, ptr %14, align 8, !tbaa !8
  %119 = load ptr, ptr %11, align 8, !tbaa !15
  %120 = load i32, ptr %119, align 4, !tbaa !10
  %121 = lshr i32 %120, 8
  %122 = and i32 %121, 255
  %123 = trunc i32 %122 to i8
  %124 = zext i8 %123 to i64
  %125 = getelementptr inbounds nuw i8, ptr %118, i64 %124
  %126 = load i8, ptr %125, align 1, !tbaa !12
  %127 = zext i8 %126 to i32
  %128 = shl i32 %127, 8
  %129 = xor i32 %117, %128
  %130 = load ptr, ptr %15, align 8, !tbaa !8
  %131 = load ptr, ptr %11, align 8, !tbaa !15
  %132 = load i32, ptr %131, align 4, !tbaa !10
  %133 = lshr i32 %132, 16
  %134 = and i32 %133, 255
  %135 = trunc i32 %134 to i8
  %136 = zext i8 %135 to i64
  %137 = getelementptr inbounds nuw i8, ptr %130, i64 %136
  %138 = load i8, ptr %137, align 1, !tbaa !12
  %139 = zext i8 %138 to i32
  %140 = shl i32 %139, 16
  %141 = xor i32 %129, %140
  %142 = load ptr, ptr %16, align 8, !tbaa !8
  %143 = load ptr, ptr %11, align 8, !tbaa !15
  %144 = load i32, ptr %143, align 4, !tbaa !10
  %145 = lshr i32 %144, 24
  %146 = and i32 %145, 255
  %147 = trunc i32 %146 to i8
  %148 = zext i8 %147 to i64
  %149 = getelementptr inbounds nuw i8, ptr %142, i64 %148
  %150 = load i8, ptr %149, align 1, !tbaa !12
  %151 = zext i8 %150 to i32
  %152 = shl i32 %151, 24
  %153 = xor i32 %141, %152
  %154 = load ptr, ptr %11, align 8, !tbaa !15
  store i32 %153, ptr %154, align 4, !tbaa !10
  %155 = load ptr, ptr %13, align 8, !tbaa !8
  %156 = load ptr, ptr %12, align 8, !tbaa !15
  %157 = load i32, ptr %156, align 4, !tbaa !10
  %158 = and i32 %157, 255
  %159 = trunc i32 %158 to i8
  %160 = zext i8 %159 to i64
  %161 = getelementptr inbounds nuw i8, ptr %155, i64 %160
  %162 = load i8, ptr %161, align 1, !tbaa !12
  %163 = zext i8 %162 to i32
  %164 = load ptr, ptr %14, align 8, !tbaa !8
  %165 = load ptr, ptr %12, align 8, !tbaa !15
  %166 = load i32, ptr %165, align 4, !tbaa !10
  %167 = lshr i32 %166, 8
  %168 = and i32 %167, 255
  %169 = trunc i32 %168 to i8
  %170 = zext i8 %169 to i64
  %171 = getelementptr inbounds nuw i8, ptr %164, i64 %170
  %172 = load i8, ptr %171, align 1, !tbaa !12
  %173 = zext i8 %172 to i32
  %174 = shl i32 %173, 8
  %175 = xor i32 %163, %174
  %176 = load ptr, ptr %15, align 8, !tbaa !8
  %177 = load ptr, ptr %12, align 8, !tbaa !15
  %178 = load i32, ptr %177, align 4, !tbaa !10
  %179 = lshr i32 %178, 16
  %180 = and i32 %179, 255
  %181 = trunc i32 %180 to i8
  %182 = zext i8 %181 to i64
  %183 = getelementptr inbounds nuw i8, ptr %176, i64 %182
  %184 = load i8, ptr %183, align 1, !tbaa !12
  %185 = zext i8 %184 to i32
  %186 = shl i32 %185, 16
  %187 = xor i32 %175, %186
  %188 = load ptr, ptr %16, align 8, !tbaa !8
  %189 = load ptr, ptr %12, align 8, !tbaa !15
  %190 = load i32, ptr %189, align 4, !tbaa !10
  %191 = lshr i32 %190, 24
  %192 = and i32 %191, 255
  %193 = trunc i32 %192 to i8
  %194 = zext i8 %193 to i64
  %195 = getelementptr inbounds nuw i8, ptr %188, i64 %194
  %196 = load i8, ptr %195, align 1, !tbaa !12
  %197 = zext i8 %196 to i32
  %198 = shl i32 %197, 24
  %199 = xor i32 %187, %198
  %200 = load ptr, ptr %12, align 8, !tbaa !15
  store i32 %199, ptr %200, align 4, !tbaa !10
  ret void
}

; Function Attrs: mustprogress uwtable
define internal void @_ZL11aria_fo_xorPjPKjS1_S1_(ptr noundef %0, ptr noundef %1, ptr noundef %2, ptr noundef %3) #0 {
  %5 = alloca ptr, align 8
  %6 = alloca ptr, align 8
  %7 = alloca ptr, align 8
  %8 = alloca ptr, align 8
  %9 = alloca i32, align 4
  %10 = alloca i32, align 4
  %11 = alloca i32, align 4
  %12 = alloca i32, align 4
  store ptr %0, ptr %5, align 8, !tbaa !15
  store ptr %1, ptr %6, align 8, !tbaa !15
  store ptr %2, ptr %7, align 8, !tbaa !15
  store ptr %3, ptr %8, align 8, !tbaa !15
  call void @llvm.lifetime.start.p0(i64 4, ptr %9) #7
  call void @llvm.lifetime.start.p0(i64 4, ptr %10) #7
  call void @llvm.lifetime.start.p0(i64 4, ptr %11) #7
  call void @llvm.lifetime.start.p0(i64 4, ptr %12) #7
  %13 = load ptr, ptr %6, align 8, !tbaa !15
  %14 = getelementptr inbounds i32, ptr %13, i64 0
  %15 = load i32, ptr %14, align 4, !tbaa !10
  %16 = load ptr, ptr %7, align 8, !tbaa !15
  %17 = getelementptr inbounds i32, ptr %16, i64 0
  %18 = load i32, ptr %17, align 4, !tbaa !10
  %19 = xor i32 %15, %18
  store i32 %19, ptr %9, align 4, !tbaa !10
  %20 = load ptr, ptr %6, align 8, !tbaa !15
  %21 = getelementptr inbounds i32, ptr %20, i64 1
  %22 = load i32, ptr %21, align 4, !tbaa !10
  %23 = load ptr, ptr %7, align 8, !tbaa !15
  %24 = getelementptr inbounds i32, ptr %23, i64 1
  %25 = load i32, ptr %24, align 4, !tbaa !10
  %26 = xor i32 %22, %25
  store i32 %26, ptr %10, align 4, !tbaa !10
  %27 = load ptr, ptr %6, align 8, !tbaa !15
  %28 = getelementptr inbounds i32, ptr %27, i64 2
  %29 = load i32, ptr %28, align 4, !tbaa !10
  %30 = load ptr, ptr %7, align 8, !tbaa !15
  %31 = getelementptr inbounds i32, ptr %30, i64 2
  %32 = load i32, ptr %31, align 4, !tbaa !10
  %33 = xor i32 %29, %32
  store i32 %33, ptr %11, align 4, !tbaa !10
  %34 = load ptr, ptr %6, align 8, !tbaa !15
  %35 = getelementptr inbounds i32, ptr %34, i64 3
  %36 = load i32, ptr %35, align 4, !tbaa !10
  %37 = load ptr, ptr %7, align 8, !tbaa !15
  %38 = getelementptr inbounds i32, ptr %37, i64 3
  %39 = load i32, ptr %38, align 4, !tbaa !10
  %40 = xor i32 %36, %39
  store i32 %40, ptr %12, align 4, !tbaa !10
  call void @_ZL7aria_slPjS_S_S_PKhS1_S1_S1_(ptr noundef %9, ptr noundef %10, ptr noundef %11, ptr noundef %12, ptr noundef @_ZL8aria_sb1, ptr noundef @_ZL8aria_sb2, ptr noundef @_ZL8aria_is1, ptr noundef @_ZL8aria_is2)
  call void @_ZL6aria_aPjS_S_S_(ptr noundef %9, ptr noundef %10, ptr noundef %11, ptr noundef %12)
  %41 = load i32, ptr %9, align 4, !tbaa !10
  %42 = load ptr, ptr %8, align 8, !tbaa !15
  %43 = getelementptr inbounds i32, ptr %42, i64 0
  %44 = load i32, ptr %43, align 4, !tbaa !10
  %45 = xor i32 %41, %44
  %46 = load ptr, ptr %5, align 8, !tbaa !15
  %47 = getelementptr inbounds i32, ptr %46, i64 0
  store i32 %45, ptr %47, align 4, !tbaa !10
  %48 = load i32, ptr %10, align 4, !tbaa !10
  %49 = load ptr, ptr %8, align 8, !tbaa !15
  %50 = getelementptr inbounds i32, ptr %49, i64 1
  %51 = load i32, ptr %50, align 4, !tbaa !10
  %52 = xor i32 %48, %51
  %53 = load ptr, ptr %5, align 8, !tbaa !15
  %54 = getelementptr inbounds i32, ptr %53, i64 1
  store i32 %52, ptr %54, align 4, !tbaa !10
  %55 = load i32, ptr %11, align 4, !tbaa !10
  %56 = load ptr, ptr %8, align 8, !tbaa !15
  %57 = getelementptr inbounds i32, ptr %56, i64 2
  %58 = load i32, ptr %57, align 4, !tbaa !10
  %59 = xor i32 %55, %58
  %60 = load ptr, ptr %5, align 8, !tbaa !15
  %61 = getelementptr inbounds i32, ptr %60, i64 2
  store i32 %59, ptr %61, align 4, !tbaa !10
  %62 = load i32, ptr %12, align 4, !tbaa !10
  %63 = load ptr, ptr %8, align 8, !tbaa !15
  %64 = getelementptr inbounds i32, ptr %63, i64 3
  %65 = load i32, ptr %64, align 4, !tbaa !10
  %66 = xor i32 %62, %65
  %67 = load ptr, ptr %5, align 8, !tbaa !15
  %68 = getelementptr inbounds i32, ptr %67, i64 3
  store i32 %66, ptr %68, align 4, !tbaa !10
  call void @llvm.lifetime.end.p0(i64 4, ptr %12) #7
  call void @llvm.lifetime.end.p0(i64 4, ptr %11) #7
  call void @llvm.lifetime.end.p0(i64 4, ptr %10) #7
  call void @llvm.lifetime.end.p0(i64 4, ptr %9) #7
  ret void
}