; Function Attrs: mustprogress nofree norecurse nosync nounwind willreturn memory(argmem: readwrite) uwtable
define internal fastcc void @_ZL11aria_fo_xorPjPKjS1_S1_(ptr noundef nonnull writeonly captures(none) initializes((0, 16)) %0, ptr noundef nonnull readonly captures(none) %1, ptr noundef nonnull readonly captures(none) %2, ptr noundef nonnull readonly captures(none) %3) unnamed_addr #3 {
  %5 = load i32, ptr %1, align 4, !tbaa !3
  %6 = load i32, ptr %2, align 4, !tbaa !3
  %7 = xor i32 %6, %5
  %8 = getelementptr inbounds nuw i8, ptr %1, i64 4
  %9 = load i32, ptr %8, align 4, !tbaa !3
  %10 = getelementptr inbounds nuw i8, ptr %2, i64 4
  %11 = load i32, ptr %10, align 4, !tbaa !3
  %12 = xor i32 %11, %9
  %13 = getelementptr inbounds nuw i8, ptr %1, i64 8
  %14 = load i32, ptr %13, align 4, !tbaa !3
  %15 = getelementptr inbounds nuw i8, ptr %2, i64 8
  %16 = load i32, ptr %15, align 4, !tbaa !3
  %17 = xor i32 %16, %14
  %18 = getelementptr inbounds nuw i8, ptr %1, i64 12
  %19 = load i32, ptr %18, align 4, !tbaa !3
  %20 = getelementptr inbounds nuw i8, ptr %2, i64 12
  %21 = load i32, ptr %20, align 4, !tbaa !3
  %22 = xor i32 %21, %19
  %23 = and i32 %7, 255
  %24 = zext nneg i32 %23 to i64
  %25 = getelementptr inbounds nuw i8, ptr @_ZL8aria_sb1, i64 %24
  %26 = load i8, ptr %25, align 1, !tbaa !9
  %27 = zext i8 %26 to i32
  %28 = lshr i32 %7, 8
  %29 = and i32 %28, 255
  %30 = zext nneg i32 %29 to i64
  %31 = getelementptr inbounds nuw i8, ptr @_ZL8aria_sb2, i64 %30
  %32 = load i8, ptr %31, align 1, !tbaa !9
  %33 = zext i8 %32 to i32
  %34 = shl nuw nsw i32 %33, 8
  %35 = or disjoint i32 %34, %27
  %36 = lshr i32 %7, 16
  %37 = and i32 %36, 255
  %38 = zext nneg i32 %37 to i64
  %39 = getelementptr inbounds nuw i8, ptr @_ZL8aria_is1, i64 %38
  %40 = load i8, ptr %39, align 1, !tbaa !9
  %41 = zext i8 %40 to i32
  %42 = shl nuw nsw i32 %41, 16
  %43 = or disjoint i32 %35, %42
  %44 = lshr i32 %7, 24
  %45 = zext nneg i32 %44 to i64
  %46 = getelementptr inbounds nuw i8, ptr @_ZL8aria_is2, i64 %45
  %47 = load i8, ptr %46, align 1, !tbaa !9
  %48 = zext i8 %47 to i32
  %49 = shl nuw i32 %48, 24
  %50 = or disjoint i32 %43, %49
  %51 = and i32 %12, 255
  %52 = zext nneg i32 %51 to i64
  %53 = getelementptr inbounds nuw i8, ptr @_ZL8aria_sb1, i64 %52
  %54 = load i8, ptr %53, align 1, !tbaa !9
  %55 = zext i8 %54 to i32
  %56 = lshr i32 %12, 8
  %57 = and i32 %56, 255
  %58 = zext nneg i32 %57 to i64
  %59 = getelementptr inbounds nuw i8, ptr @_ZL8aria_sb2, i64 %58
  %60 = load i8, ptr %59, align 1, !tbaa !9
  %61 = zext i8 %60 to i32
  %62 = shl nuw nsw i32 %61, 8
  %63 = or disjoint i32 %62, %55
  %64 = lshr i32 %12, 16
  %65 = and i32 %64, 255
  %66 = zext nneg i32 %65 to i64
  %67 = getelementptr inbounds nuw i8, ptr @_ZL8aria_is1, i64 %66
  %68 = load i8, ptr %67, align 1, !tbaa !9
  %69 = zext i8 %68 to i32
  %70 = shl nuw nsw i32 %69, 16
  %71 = or disjoint i32 %63, %70
  %72 = lshr i32 %12, 24
  %73 = zext nneg i32 %72 to i64
  %74 = getelementptr inbounds nuw i8, ptr @_ZL8aria_is2, i64 %73
  %75 = load i8, ptr %74, align 1, !tbaa !9
  %76 = zext i8 %75 to i32
  %77 = shl nuw i32 %76, 24
  %78 = or disjoint i32 %71, %77
  %79 = and i32 %17, 255
  %80 = zext nneg i32 %79 to i64
  %81 = getelementptr inbounds nuw i8, ptr @_ZL8aria_sb1, i64 %80
  %82 = load i8, ptr %81, align 1, !tbaa !9
  %83 = zext i8 %82 to i32
  %84 = lshr i32 %17, 8
  %85 = and i32 %84, 255
  %86 = zext nneg i32 %85 to i64
  %87 = getelementptr inbounds nuw i8, ptr @_ZL8aria_sb2, i64 %86
  %88 = load i8, ptr %87, align 1, !tbaa !9
  %89 = zext i8 %88 to i32
  %90 = lshr i32 %17, 16
  %91 = and i32 %90, 255
  %92 = zext nneg i32 %91 to i64
  %93 = getelementptr inbounds nuw i8, ptr @_ZL8aria_is1, i64 %92
  %94 = load i8, ptr %93, align 1, !tbaa !9
  %95 = zext i8 %94 to i32
  %96 = lshr i32 %17, 24
  %97 = zext nneg i32 %96 to i64
  %98 = getelementptr inbounds nuw i8, ptr @_ZL8aria_is2, i64 %97
  %99 = load i8, ptr %98, align 1, !tbaa !9
  %100 = zext i8 %99 to i32
  %101 = shl nuw nsw i32 %100, 16
  %102 = and i32 %22, 255
  %103 = zext nneg i32 %102 to i64
  %104 = getelementptr inbounds nuw i8, ptr @_ZL8aria_sb1, i64 %103
  %105 = load i8, ptr %104, align 1, !tbaa !9
  %106 = zext i8 %105 to i32
  %107 = lshr i32 %22, 8
  %108 = and i32 %107, 255
  %109 = zext nneg i32 %108 to i64
  %110 = getelementptr inbounds nuw i8, ptr @_ZL8aria_sb2, i64 %109
  %111 = load i8, ptr %110, align 1, !tbaa !9
  %112 = zext i8 %111 to i32
  %113 = shl nuw nsw i32 %112, 8
  %114 = or disjoint i32 %113, %106
  %115 = lshr i32 %22, 16
  %116 = and i32 %115, 255
  %117 = zext nneg i32 %116 to i64
  %118 = getelementptr inbounds nuw i8, ptr @_ZL8aria_is1, i64 %117
  %119 = load i8, ptr %118, align 1, !tbaa !9
  %120 = zext i8 %119 to i32
  %121 = shl nuw nsw i32 %120, 16
  %122 = or disjoint i32 %114, %121
  %123 = lshr i32 %22, 24
  %124 = zext nneg i32 %123 to i64
  %125 = getelementptr inbounds nuw i8, ptr @_ZL8aria_is2, i64 %124
  %126 = load i8, ptr %125, align 1, !tbaa !9
  %127 = zext i8 %126 to i32
  %128 = shl nuw i32 %127, 24
  %129 = or disjoint i32 %122, %128
  %130 = tail call i32 @llvm.fshl.i32(i32 %78, i32 %78, i32 16)
  %131 = or disjoint i32 %101, %89
  %132 = shl nuw i32 %95, 24
  %133 = shl nuw nsw i32 %83, 8
  %134 = or disjoint i32 %132, %133
  %135 = or disjoint i32 %131, %134
  %136 = tail call i32 @llvm.bswap.i32(i32 %129)
  %137 = xor i32 %135, %78
  %138 = tail call i32 @llvm.fshl.i32(i32 %50, i32 %50, i32 16)
  %139 = lshr i32 %137, 8
  %140 = and i32 %139, 16711935
  %141 = shl i32 %137, 8
  %142 = and i32 %141, -16711936
  %143 = or disjoint i32 %140, %142
  %144 = xor i32 %138, %143
  %145 = xor i32 %144, %136
  %146 = xor i32 %129, %135
  %147 = tail call i32 @llvm.fshl.i32(i32 %146, i32 %146, i32 16)
  %148 = lshr i32 %130, 8
  %149 = and i32 %148, 16711935
  %150 = shl i32 %130, 8
  %151 = and i32 %150, -16711936
  %152 = or disjoint i32 %149, %151
  %153 = xor i32 %152, %138
  %154 = tail call i32 @llvm.fshl.i32(i32 %147, i32 %147, i32 16)
  %155 = xor i32 %145, %154
  %156 = lshr i32 %155, 8
  %157 = and i32 %156, 16711935
  %158 = shl i32 %155, 8
  %159 = and i32 %158, -16711936
  %160 = or disjoint i32 %157, %159
  %161 = tail call i32 @llvm.fshl.i32(i32 %145, i32 %145, i32 16)
  %162 = tail call i32 @llvm.bswap.i32(i32 %145)
  %163 = tail call i32 @llvm.bswap.i32(i32 %153)
  %164 = load i32, ptr %3, align 4, !tbaa !3
  %165 = xor i32 %164, %160
  %166 = xor i32 %165, %130
  store i32 %166, ptr %0, align 4, !tbaa !3
  %167 = getelementptr inbounds nuw i8, ptr %3, i64 4
  %168 = load i32, ptr %167, align 4, !tbaa !3
  %169 = xor i32 %168, %50
  %170 = xor i32 %169, %147
  %171 = xor i32 %170, %145
  %172 = getelementptr inbounds nuw i8, ptr %0, i64 4
  store i32 %171, ptr %172, align 4, !tbaa !3
  %173 = getelementptr inbounds nuw i8, ptr %3, i64 8
  %174 = load i32, ptr %173, align 4, !tbaa !3
  %175 = xor i32 %163, %174
  %176 = xor i32 %175, %161
  %177 = xor i32 %176, %136
  %178 = getelementptr inbounds nuw i8, ptr %0, i64 8
  store i32 %177, ptr %178, align 4, !tbaa !3
  %179 = getelementptr inbounds nuw i8, ptr %3, i64 12
  %180 = load i32, ptr %179, align 4, !tbaa !3
  %181 = xor i32 %180, %162
  %182 = xor i32 %181, %153
  %183 = xor i32 %182, %135
  %184 = getelementptr inbounds nuw i8, ptr %0, i64 12
  store i32 %183, ptr %184, align 4, !tbaa !3
  ret void
}